; Function Attrs: mustprogress nofree norecurse nosync nounwind willreturn memory(argmem: read) uwtable
define noundef i32 @_ZNK8proxygen11HeaderTable4nextEj(ptr nocapture noundef nonnull readonly align 8 dereferenceable(80) %this, i32 noundef %i) local_unnamed_addr #7 align 2 {
entry:
  %add = add i32 %i, 1
  %conv = zext i32 %add to i64
  %table_.i = getelementptr inbounds i8, ptr %this, i64 16
  %_M_finish.i.i = getelementptr inbounds i8, ptr %this, i64 24
  %0 = load ptr, ptr %_M_finish.i.i, align 8
  %1 = load ptr, ptr %table_.i, align 8
  %sub.ptr.lhs.cast.i.i = ptrtoint ptr %0 to i64
  %sub.ptr.rhs.cast.i.i = ptrtoint ptr %1 to i64
  %sub.ptr.sub.i.i = sub i64 %sub.ptr.lhs.cast.i.i, %sub.ptr.rhs.cast.i.i
  %sub.ptr.div.i.i = ashr exact i64 %sub.ptr.sub.i.i, 5
  %rem = urem i64 %conv, %sub.ptr.div.i.i
  %conv2 = trunc i64 %rem to i32
  ret i32 %conv2
}